; Function Attrs: nounwind uwtable
define dso_local ptr @onas_get_opt_list(ptr noundef %0, ptr nocapture noundef %1, ptr nocapture noundef writeonly %2) local_unnamed_addr #0 {
  %4 = alloca %struct.stat, align 8
  %5 = alloca i64, align 8
  store i64 0, ptr %5, align 8
  store i32 0, ptr %1, align 4
  %6 = tail call noalias dereferenceable_or_null(8) ptr @malloc(i64 noundef 8) #11
  %7 = icmp eq ptr %6, null
  br i1 %7, label %8, label %9

8:                                                ; preds = %3
  store i32 20, ptr %2, align 4
  br label %105

9:                                                ; preds = %3
  store ptr null, ptr %6, align 8
  %10 = tail call ptr @__errno_location() #9
  store i32 0, ptr %10, align 4
  %11 = tail call noalias ptr @fopen(ptr noundef %0, ptr noundef nonnull @.str.12)
  %12 = icmp eq ptr %11, null
  br i1 %12, label %19, label %.preheader

.preheader:                                       ; preds = %9
  %13 = load i32, ptr %1, align 4
  %14 = sext i32 %13 to i64
  %15 = getelementptr inbounds ptr, ptr %6, i64 %14
  %16 = call i64 @getline(ptr noundef nonnull %15, ptr noundef nonnull %5, ptr noundef nonnull %11) #8
  %17 = and i64 %16, 4294967295
  %.not6567 = icmp eq i64 %17, 4294967295
  br i1 %.not6567, label %.outer._crit_edge, label %.lr.ph.lr.ph

.lr.ph.lr.ph:                                     ; preds = %.preheader
  %18 = getelementptr inbounds i8, ptr %4, i64 24
  br label %.lr.ph

19:                                               ; preds = %9
  %20 = load i32, ptr %10, align 4
  %.not63 = icmp eq i32 %20, 0
  br i1 %.not63, label %23, label %21

21:                                               ; preds = %19
  %22 = tail call ptr @strerror(i32 noundef %20) #8
  br label %23

23:                                               ; preds = %19, %21
  %24 = phi ptr [ %22, %21 ], [ @.str.14, %19 ]
  %25 = tail call i32 (i32, ptr, ...) @logg(i32 noundef 5, ptr noundef nonnull @.str.13, ptr noundef %0, ptr noundef %24) #8
  store i32 3, ptr %2, align 4
  tail call void @free(ptr noundef nonnull %6) #8
  br label %105

26:                                               ; preds = %.lr.ph, %.backedge
  %27 = load i32, ptr %1, align 4
  %28 = sext i32 %27 to i64
  %29 = getelementptr inbounds ptr, ptr %.0.ph68, i64 %28
  %30 = load ptr, ptr %29, align 8
  %31 = call i64 @strlen(ptr noundef nonnull dereferenceable(1) %30) #10
  %32 = getelementptr i8, ptr %30, i64 %31
  %33 = getelementptr i8, ptr %32, i64 -1
  store i8 0, ptr %33, align 1
  store i32 0, ptr %10, align 4
  %34 = load i32, ptr %1, align 4
  %35 = sext i32 %34 to i64
  %36 = getelementptr inbounds ptr, ptr %.0.ph68, i64 %35
  %37 = load ptr, ptr %36, align 8
  %38 = call i32 @stat(ptr noundef %37, ptr noundef nonnull %4) #8
  %.not61 = icmp eq i32 %38, 0
  br i1 %.not61, label %59, label %39

39:                                               ; preds = %26
  %40 = load i32, ptr %1, align 4
  %41 = sext i32 %40 to i64
  %42 = getelementptr inbounds ptr, ptr %.0.ph68, i64 %41
  %43 = load ptr, ptr %42, align 8
  %44 = load i32, ptr %10, align 4
  %45 = call ptr @strerror(i32 noundef %44) #8
  %46 = call i32 (i32, ptr, ...) @logg(i32 noundef 2, ptr noundef nonnull @.str.15, ptr noundef %43, ptr noundef %45) #8
  store i64 0, ptr %5, align 8
  br label %.backedge

.backedge:                                        ; preds = %39, %67, %72
  %47 = load i32, ptr %1, align 4
  %48 = sext i32 %47 to i64
  %49 = getelementptr inbounds ptr, ptr %.0.ph68, i64 %48
  %50 = load ptr, ptr %49, align 8
  call void @free(ptr noundef %50) #8
  %51 = load i32, ptr %1, align 4
  %52 = sext i32 %51 to i64
  %53 = getelementptr inbounds ptr, ptr %.0.ph68, i64 %52
  store ptr null, ptr %53, align 8
  %54 = load i32, ptr %1, align 4
  %55 = sext i32 %54 to i64
  %56 = getelementptr inbounds ptr, ptr %.0.ph68, i64 %55
  %57 = call i64 @getline(ptr noundef nonnull %56, ptr noundef nonnull %5, ptr noundef nonnull %11) #8
  %58 = and i64 %57, 4294967295
  %.not = icmp eq i64 %58, 4294967295
  br i1 %.not, label %.outer._crit_edge, label %26

59:                                               ; preds = %26
  %60 = load i32, ptr %18, align 8
  %61 = and i32 %60, 61440
  %62 = icmp eq i32 %61, 16384
  %63 = load i32, ptr %1, align 4
  %64 = sext i32 %63 to i64
  %65 = getelementptr inbounds ptr, ptr %.0.ph68, i64 %64
  %66 = load ptr, ptr %65, align 8
  br i1 %62, label %69, label %67

67:                                               ; preds = %59
  %68 = call i32 (i32, ptr, ...) @logg(i32 noundef 2, ptr noundef nonnull @.str.16, ptr noundef %66) #8
  store i64 0, ptr %5, align 8
  br label %.backedge

69:                                               ; preds = %59
  %70 = call i32 @strcmp(ptr noundef nonnull dereferenceable(1) %66, ptr noundef nonnull dereferenceable(2) @.str.17) #10
  %71 = icmp eq i32 %70, 0
  br i1 %71, label %72, label %79

72:                                               ; preds = %69
  %73 = call i32 (i32, ptr, ...) @logg(i32 noundef 2, ptr noundef nonnull @.str.18, ptr noundef %66) #8
  %74 = load i32, ptr %1, align 4
  %75 = sext i32 %74 to i64
  %76 = getelementptr inbounds ptr, ptr %.0.ph68, i64 %75
  %77 = load ptr, ptr %76, align 8
  %78 = call i32 (i32, ptr, ...) @logg(i32 noundef 2, ptr noundef nonnull @.str.19, ptr noundef %77) #8
  store i64 0, ptr %5, align 8
  br label %.backedge

79:                                               ; preds = %69
  %80 = add nsw i32 %63, 1
  store i32 %80, ptr %1, align 4
  %81 = add nsw i32 %63, 2
  %82 = sext i32 %81 to i64
  %83 = shl nsw i64 %82, 3
  %84 = call ptr @cli_safer_realloc(ptr noundef nonnull %.0.ph68, i64 noundef %83) #8
  %.not62 = icmp eq ptr %84, null
  br i1 %.not62, label %93, label %.outer

.outer:                                           ; preds = %79
  %85 = load i32, ptr %1, align 4
  %86 = sext i32 %85 to i64
  %87 = getelementptr inbounds ptr, ptr %84, i64 %86
  store ptr null, ptr %87, align 8
  store i64 0, ptr %5, align 8
  %88 = load i32, ptr %1, align 4
  %89 = sext i32 %88 to i64
  %90 = getelementptr inbounds ptr, ptr %84, i64 %89
  %91 = call i64 @getline(ptr noundef nonnull %90, ptr noundef nonnull %5, ptr noundef nonnull %11) #8
  %92 = and i64 %91, 4294967295
  %.not65 = icmp eq i64 %92, 4294967295
  br i1 %.not65, label %.outer._crit_edge, label %.lr.ph

.lr.ph:                                           ; preds = %.lr.ph.lr.ph, %.outer
  %.0.ph68 = phi ptr [ %6, %.lr.ph.lr.ph ], [ %84, %.outer ]
  br label %26

93:                                               ; preds = %79
  store i32 20, ptr %2, align 4
  %94 = call i32 @fclose(ptr noundef nonnull %11)
  %95 = load i32, ptr %1, align 4
  %96 = icmp sgt i32 %95, 0
  br i1 %96, label %.lr.ph.preheader.i, label %free_opt_list.exit

.lr.ph.preheader.i:                               ; preds = %93
  %wide.trip.count.i = zext nneg i32 %95 to i64
  br label %.lr.ph.i

.lr.ph.i:                                         ; preds = %100, %.lr.ph.preheader.i
  %indvars.iv.i = phi i64 [ 0, %.lr.ph.preheader.i ], [ %indvars.iv.next.i, %100 ]
  %97 = getelementptr inbounds ptr, ptr %.0.ph68, i64 %indvars.iv.i
  %98 = load ptr, ptr %97, align 8
  %.not.i = icmp eq ptr %98, null
  br i1 %.not.i, label %100, label %99

99:                                               ; preds = %.lr.ph.i
  call void @free(ptr noundef nonnull %98) #8
  store ptr null, ptr %97, align 8
  br label %100

100:                                              ; preds = %99, %.lr.ph.i
  %indvars.iv.next.i = add nuw nsw i64 %indvars.iv.i, 1
  %exitcond.not.i = icmp eq i64 %indvars.iv.next.i, %wide.trip.count.i
  br i1 %exitcond.not.i, label %free_opt_list.exit, label %.lr.ph.i

free_opt_list.exit:                               ; preds = %100, %93
  call void @free(ptr noundef nonnull %.0.ph68) #8
  br label %105

.outer._crit_edge:                                ; preds = %.outer, %.backedge, %.preheader
  %.0.ph.lcssa64 = phi ptr [ %6, %.preheader ], [ %.0.ph68, %.backedge ], [ %84, %.outer ]
  %101 = load i32, ptr %1, align 4
  %102 = sext i32 %101 to i64
  %103 = getelementptr inbounds ptr, ptr %.0.ph.lcssa64, i64 %102
  store ptr null, ptr %103, align 8
  %104 = call i32 @fclose(ptr noundef nonnull %11)
  br label %105

105:                                              ; preds = %.outer._crit_edge, %free_opt_list.exit, %23, %8
  %.057 = phi ptr [ null, %8 ], [ null, %23 ], [ null, %free_opt_list.exit ], [ %.0.ph.lcssa64, %.outer._crit_edge ]
  ret ptr %.057
}